target datalayout = "e-m:e-p270:32:32-p271:32:32-p272:64:64-i64:64-i128:128-f80:128-n8:16:32:64-S128"
target triple = "x86_64-pc-linux-gnu"

%"class.vcg::Color4" = type { %"class.vcg::Point4" }
%"class.vcg::Point4" = type { [4 x i8] }
%struct.MLPerViewGLOptions = type { %"struct.vcg::RenderingModalityGLOptions.base", i8, i8, i8, i8, i8, i8, i8, i8, i8, i8, i8, i8, i8, i8, %"class.vcg::Color4", %"class.vcg::Color4", %"class.vcg::Color4", i8, %"class.vcg::Color4", %"class.vcg::Color4", i8, i8, i8, [6 x i8] }
%"struct.vcg::RenderingModalityGLOptions.base" = type <{ ptr, i8, i8, i8, i8, i8, %"class.vcg::Color4", %"class.vcg::Color4", %"class.vcg::Color4", %"class.vcg::Color4", i8, i8, i8, i8, i8, i8, i8, i8, [3 x i8], float, i8, i8, [2 x i8], float }>
%"struct.vcg::RenderingModalityGLOptions" = type <{ ptr, i8, i8, i8, i8, i8, %"class.vcg::Color4", %"class.vcg::Color4", %"class.vcg::Color4", %"class.vcg::Color4", i8, i8, i8, i8, i8, i8, i8, i8, [3 x i8], float, i8, i8, [2 x i8], float, [4 x i8] }>

; Function Attrs: mustprogress nounwind uwtable
define linkonce_odr void @_ZN3vcg6Point4IhEC2Ehhhh(ptr noundef nonnull align 1 dereferenceable(4) %0, i8 noundef zeroext %1, i8 noundef zeroext %2, i8 noundef zeroext %3, i8 noundef zeroext %4) unnamed_addr #4 comdat align 2 {
  %6 = alloca ptr, align 8
  %7 = alloca i8, align 1
  %8 = alloca i8, align 1
  %9 = alloca i8, align 1
  %10 = alloca i8, align 1
  store ptr %0, ptr %6, align 8
  store i8 %1, ptr %7, align 1
  store i8 %2, ptr %8, align 1
  store i8 %3, ptr %9, align 1
  store i8 %4, ptr %10, align 1
  %11 = load ptr, ptr %6, align 8
  %12 = load i8, ptr %7, align 1
  %13 = getelementptr inbounds %"class.vcg::Point4", ptr %11, i32 0, i32 0
  %14 = getelementptr inbounds [4 x i8], ptr %13, i64 0, i64 0
  store i8 %12, ptr %14, align 1
  %15 = load i8, ptr %8, align 1
  %16 = getelementptr inbounds %"class.vcg::Point4", ptr %11, i32 0, i32 0
  %17 = getelementptr inbounds [4 x i8], ptr %16, i64 0, i64 1
  store i8 %15, ptr %17, align 1
  %18 = load i8, ptr %9, align 1
  %19 = getelementptr inbounds %"class.vcg::Point4", ptr %11, i32 0, i32 0
  %20 = getelementptr inbounds [4 x i8], ptr %19, i64 0, i64 2
  store i8 %18, ptr %20, align 1
  %21 = load i8, ptr %10, align 1
  %22 = getelementptr inbounds %"class.vcg::Point4", ptr %11, i32 0, i32 0
  %23 = getelementptr inbounds [4 x i8], ptr %22, i64 0, i64 3
  store i8 %21, ptr %23, align 1
  ret void
}

; Function Attrs: mustprogress nounwind uwtable
define linkonce_odr void @_ZN3vcg6Point4IhEC2Ev(ptr noundef nonnull align 1 dereferenceable(4) %0) unnamed_addr #4 comdat align 2 {
  %2 = alloca ptr, align 8
  store ptr %0, ptr %2, align 8
  ret void
}

; Function Attrs: mustprogress uwtable
define linkonce_odr void @_ZN3vcg6Color4IhEC2ENS1_13ColorConstantE(ptr noundef nonnull align 1 dereferenceable(4) %0, i32 noundef %1) unnamed_addr #5 comdat align 2 {
  %3 = alloca ptr, align 8
  %4 = alloca i32, align 4
  store ptr %0, ptr %3, align 8
  store i32 %1, ptr %4, align 4
  %5 = load ptr, ptr %3, align 8
  call void @_ZN3vcg6Point4IhEC2Ev(ptr noundef nonnull align 1 dereferenceable(4) %5)
  %6 = load i32, ptr %4, align 4
  store i32 %6, ptr %5, align 4
  ret void
}

; Function Attrs: mustprogress uwtable
define linkonce_odr void @_ZN3vcg6Color4IhEC2Ehhhh(ptr noundef nonnull align 1 dereferenceable(4) %0, i8 noundef zeroext %1, i8 noundef zeroext %2, i8 noundef zeroext %3, i8 noundef zeroext %4) unnamed_addr #5 comdat align 2 {
  %6 = alloca ptr, align 8
  %7 = alloca i8, align 1
  %8 = alloca i8, align 1
  %9 = alloca i8, align 1
  %10 = alloca i8, align 1
  store ptr %0, ptr %6, align 8
  store i8 %1, ptr %7, align 1
  store i8 %2, ptr %8, align 1
  store i8 %3, ptr %9, align 1
  store i8 %4, ptr %10, align 1
  %11 = load ptr, ptr %6, align 8
  %12 = load i8, ptr %7, align 1
  %13 = load i8, ptr %8, align 1
  %14 = load i8, ptr %9, align 1
  %15 = load i8, ptr %10, align 1
  call void @_ZN3vcg6Point4IhEC2Ehhhh(ptr noundef nonnull align 1 dereferenceable(4) %11, i8 noundef zeroext %12, i8 noundef zeroext %13, i8 noundef zeroext %14, i8 noundef zeroext %15)
  ret void
}

; Function Attrs: mustprogress nounwind uwtable
define linkonce_odr void @_ZN3vcg6Color4IhEC2Ej(ptr noundef nonnull align 1 dereferenceable(4) %0, i32 noundef %1) unnamed_addr #4 comdat align 2 {
  %3 = alloca ptr, align 8
  %4 = alloca i32, align 4
  store ptr %0, ptr %3, align 8
  store i32 %1, ptr %4, align 4
  %5 = load ptr, ptr %3, align 8
  call void @_ZN3vcg6Point4IhEC2Ev(ptr noundef nonnull align 1 dereferenceable(4) %5)
  %6 = load i32, ptr %4, align 4
  store i32 %6, ptr %5, align 4
  ret void
}

; Function Attrs: mustprogress uwtable
define void @_ZN29MLPoliciesStandAloneFunctions32suggestedDefaultPerViewGLOptionsER18MLPerViewGLOptions(ptr noundef nonnull align 8 dereferenceable(90) %0) #5 align 2 {
  %2 = alloca ptr, align 8
  %3 = alloca %"class.vcg::Color4", align 1
  %4 = alloca %"class.vcg::Color4", align 1
  %5 = alloca %"class.vcg::Color4", align 1
  %6 = alloca %"class.vcg::Color4", align 1
  store ptr %0, ptr %2, align 8
  call void @_ZN3vcg6Color4IhEC2Ej(ptr noundef nonnull align 1 dereferenceable(4) %3, i32 noundef -1381654)
  %7 = load ptr, ptr %2, align 8
  %8 = getelementptr inbounds %"struct.vcg::RenderingModalityGLOptions", ptr %7, i32 0, i32 6
  call void @llvm.memcpy.p0.p0.i64(ptr align 1 %8, ptr align 1 %3, i64 4, i1 false)
  call void @_ZN3vcg6Color4IhEC2Ehhhh(ptr noundef nonnull align 1 dereferenceable(4) %4, i8 noundef zeroext -4, i8 noundef zeroext -23, i8 noundef zeroext 79, i8 noundef zeroext -1)
  %9 = load ptr, ptr %2, align 8
  %10 = getelementptr inbounds %"struct.vcg::RenderingModalityGLOptions", ptr %9, i32 0, i32 7
  call void @llvm.memcpy.p0.p0.i64(ptr align 1 %10, ptr align 1 %4, i64 4, i1 false)
  call void @_ZN3vcg6Color4IhEC2ENS1_13ColorConstantE(ptr noundef nonnull align 1 dereferenceable(4) %5, i32 noundef -12566464)
  %11 = load ptr, ptr %2, align 8
  %12 = getelementptr inbounds %"struct.vcg::RenderingModalityGLOptions", ptr %11, i32 0, i32 8
  call void @llvm.memcpy.p0.p0.i64(ptr align 1 %12, ptr align 1 %5, i64 4, i1 false)
  call void @_ZN3vcg6Color4IhEC2ENS1_13ColorConstantE(ptr noundef nonnull align 1 dereferenceable(4) %6, i32 noundef -4144960)
  %13 = load ptr, ptr %2, align 8
  %14 = getelementptr inbounds %"struct.vcg::RenderingModalityGLOptions", ptr %13, i32 0, i32 9
  call void @llvm.memcpy.p0.p0.i64(ptr align 1 %14, ptr align 1 %6, i64 4, i1 false)
  %15 = load ptr, ptr %2, align 8
  %16 = getelementptr inbounds %struct.MLPerViewGLOptions, ptr %15, i32 0, i32 21
  store i8 1, ptr %16, align 1
  %17 = load ptr, ptr %2, align 8
  %18 = getelementptr inbounds %struct.MLPerViewGLOptions, ptr %17, i32 0, i32 3
  store i8 1, ptr %18, align 2
  ret void
}