; Function Attrs: mustprogress nofree norecurse nosync nounwind willreturn memory(argmem: write) uwtable
define void @_ZN29MLPoliciesStandAloneFunctions32suggestedDefaultPerViewGLOptionsER18MLPerViewGLOptions(ptr nocapture noundef nonnull writeonly align 8 dereferenceable(90) %0) local_unnamed_addr #11 align 2 {
  %2 = getelementptr inbounds i8, ptr %0, i64 13
  store <4 x i32> <i32 -1381654, i32 -11539972, i32 -12566464, i32 -4144960>, ptr %2, align 1
  %3 = getelementptr inbounds i8, ptr %0, i64 87
  store i8 1, ptr %3, align 1
  %4 = getelementptr inbounds i8, ptr %0, i64 54
  store i8 1, ptr %4, align 2
  ret void
}